; Function Attrs: mustprogress nofree norecurse nosync nounwind willreturn memory(read, argmem: readwrite, inaccessiblemem: none) uwtable
define internal void @_ZN12_GLOBAL__N_126InlineCostFeaturesAnalyzer16onFinalizeSwitchEjjb(ptr noundef nonnull align 8 captures(none) dereferenceable(736) %0, i32 noundef %1, i32 noundef %2, i1 noundef zeroext %3) unnamed_addr #14 align 2 {
  %.not = icmp eq i32 %1, 0
  br i1 %.not, label %17, label %5

5:                                                ; preds = %4
  %.pre = load i32, ptr getelementptr inbounds nuw (i8, ptr @_ZL9InstrCost, i64 128), align 8
  br i1 %3, label %11, label %6

6:                                                ; preds = %5
  %7 = shl nsw i32 %.pre, 1
  %8 = getelementptr inbounds nuw i8, ptr %0, i64 632
  %9 = load i32, ptr %8, align 8
  %10 = add i32 %9, %7
  store i32 %10, ptr %8, align 8
  br label %11

11:                                               ; preds = %6, %5
  %12 = add i32 %1, 2
  %13 = mul i32 %.pre, %12
  %14 = getelementptr inbounds nuw i8, ptr %0, i64 624
  %15 = load i32, ptr %14, align 8
  %16 = add i32 %15, %13
  store i32 %16, ptr %14, align 8
  br label %37

17:                                               ; preds = %4
  %18 = icmp ult i32 %2, 4
  %19 = load i32, ptr getelementptr inbounds nuw (i8, ptr @_ZL9InstrCost, i64 128), align 8
  br i1 %18, label %20, label %27

20:                                               ; preds = %17
  %.neg = sext i1 %3 to i32
  %21 = add nsw i32 %2, %.neg
  %22 = shl nsw i32 %21, 1
  %23 = mul i32 %22, %19
  %24 = getelementptr inbounds nuw i8, ptr %0, i64 628
  %25 = load i32, ptr %24, align 4
  %26 = add i32 %25, %23
  store i32 %26, ptr %24, align 4
  br label %37

27:                                               ; preds = %17
  %28 = sext i32 %2 to i64
  %29 = mul nsw i64 %28, 3
  %30 = sdiv i64 %29, 2
  %31 = getelementptr inbounds nuw i8, ptr %0, i64 636
  %32 = load i32, ptr %31, align 4
  %.tr = trunc i64 %30 to i32
  %33 = shl i32 %.tr, 1
  %34 = add i32 %33, -2
  %35 = mul i32 %19, %34
  %36 = add i32 %32, %35
  store i32 %36, ptr %31, align 4
  br label %37

37:                                               ; preds = %27, %20, %11
  ret void
}